; Function Attrs: mustprogress uwtable
define void @_ZN22LteRlcStatisticsDialog34useRLCFramesFromMacCheckBoxToggledEb(ptr noundef nonnull align 8 dereferenceable(300) %0, i1 noundef zeroext %1) local_unnamed_addr #2 align 2 {
  %3 = zext i1 %1 to i32
  store i32 %3, ptr getelementptr inbounds (%struct.recent_settings_tag, ptr @recent, i64 0, i32 47), align 8
  %4 = load ptr, ptr %0, align 8
  %5 = getelementptr inbounds i8, ptr %4, i64 520
  %6 = load ptr, ptr %5, align 8
  tail call void %6(ptr noundef nonnull align 8 dereferenceable(300) %0)
  ret void
}